target datalayout = "e-m:e-p270:32:32-p271:32:32-p272:64:64-i64:64-i128:128-f80:128-n8:16:32:64-S128"
target triple = "x86_64-unknown-linux-gnu"

%"class.std::__shared_count" = type { ptr }
%"class.std::__shared_ptr.70" = type { ptr, %"class.std::__shared_count" }
%"struct.facebook::velox::StringView" = type { i32, [4 x i8], %union.anon.229 }
%union.anon.229 = type { ptr }

@_ZTIN8facebook5velox10BaseVectorE = external constant ptr

; Function Attrs: mustprogress nounwind uwtable
define linkonce_odr noundef ptr @_ZNKSt12__shared_ptrIN8facebook5velox10BaseVectorELN9__gnu_cxx12_Lock_policyE2EE3getEv(ptr noundef nonnull align 8 dereferenceable(16) %this) #1 comdat align 2 {
entry:
  %this.addr = alloca ptr, align 8
  store ptr %this, ptr %this.addr, align 8
  %this1 = load ptr, ptr %this.addr, align 8
  %_M_ptr = getelementptr inbounds %"class.std::__shared_ptr.70", ptr %this1, i32 0, i32 0
  %0 = load ptr, ptr %_M_ptr, align 8
  ret ptr %0
}

; Function Attrs: mustprogress nounwind uwtable
define linkonce_odr noundef ptr @_ZNKSt19__shared_ptr_accessIN8facebook5velox10BaseVectorELN9__gnu_cxx12_Lock_policyE2ELb0ELb0EE6_M_getEv(ptr noundef nonnull align 1 dereferenceable(1) %this) #1 comdat align 2 {
entry:
  %this.addr = alloca ptr, align 8
  store ptr %this, ptr %this.addr, align 8
  %this1 = load ptr, ptr %this.addr, align 8
  %call = call noundef ptr @_ZNKSt12__shared_ptrIN8facebook5velox10BaseVectorELN9__gnu_cxx12_Lock_policyE2EE3getEv(ptr noundef nonnull align 8 dereferenceable(16) %this1) #28
  ret ptr %call
}

; Function Attrs: mustprogress nounwind uwtable
define linkonce_odr noundef ptr @_ZN8facebook5velox10BaseVector2asINS0_12SimpleVectorINS0_10StringViewEEEEEPT_v(ptr noundef nonnull align 8 dereferenceable(99) %this) #1 comdat align 2 {
entry:
  %this.addr = alloca ptr, align 8
  store ptr %this, ptr %this.addr, align 8
  %this1 = load ptr, ptr %this.addr, align 8
  %0 = icmp eq ptr %this1, null
  br i1 %0, label %dynamic_cast.null, label %dynamic_cast.notnull

dynamic_cast.notnull:                             ; preds = %entry
  %1 = call ptr @__dynamic_cast(ptr %this1, ptr @_ZTIN8facebook5velox10BaseVectorE, ptr @_ZTIN8facebook5velox12SimpleVectorINS0_10StringViewEEE, i64 0) #28
  br label %dynamic_cast.end

dynamic_cast.null:                                ; preds = %entry
  br label %dynamic_cast.end

dynamic_cast.end:                                 ; preds = %dynamic_cast.null, %dynamic_cast.notnull
  %2 = phi ptr [ %1, %dynamic_cast.notnull ], [ null, %dynamic_cast.null ]
  ret ptr %2
}

; Function Attrs: mustprogress nounwind uwtable
define linkonce_odr noundef ptr @_ZNKSt19__shared_ptr_accessIN8facebook5velox10BaseVectorELN9__gnu_cxx12_Lock_policyE2ELb0ELb0EEptEv(ptr noundef nonnull align 1 dereferenceable(1) %this) #1 comdat align 2 {
entry:
  %this.addr = alloca ptr, align 8
  store ptr %this, ptr %this.addr, align 8
  %this1 = load ptr, ptr %this.addr, align 8
  %call = call noundef ptr @_ZNKSt19__shared_ptr_accessIN8facebook5velox10BaseVectorELN9__gnu_cxx12_Lock_policyE2ELb0ELb0EE6_M_getEv(ptr noundef nonnull align 1 dereferenceable(1) %this1) #28
  ret ptr %call
}

; Function Attrs: mustprogress uwtable
define internal { i64, ptr } @_ZN8facebook5velox4exec12_GLOBAL__N_111singleValueINS0_10StringViewEEET_RKSt10shared_ptrINS0_10BaseVectorEE(ptr noundef nonnull align 8 dereferenceable(16) %vector) #0 {
entry:
  %retval = alloca %"struct.facebook::velox::StringView", align 8
  %vector.addr = alloca ptr, align 8
  %simpleVector = alloca ptr, align 8
  store ptr %vector, ptr %vector.addr, align 8
  %0 = load ptr, ptr %vector.addr, align 8
  %call = call noundef ptr @_ZNKSt19__shared_ptr_accessIN8facebook5velox10BaseVectorELN9__gnu_cxx12_Lock_policyE2ELb0ELb0EEptEv(ptr noundef nonnull align 1 dereferenceable(1) %0) #28
  %call1 = call noundef ptr @_ZN8facebook5velox10BaseVector2asINS0_12SimpleVectorINS0_10StringViewEEEEEPT_v(ptr noundef nonnull align 8 dereferenceable(99) %call)
  store ptr %call1, ptr %simpleVector, align 8
  %1 = load ptr, ptr %simpleVector, align 8
  %cmp = icmp ne ptr %1, null
  %lnot = xor i1 %cmp, true
  br i1 %lnot, label %if.then, label %if.end

if.then:                                          ; preds = %entry
  call void @llvm.trap()
  br label %if.end

if.end:                                           ; preds = %if.then, %entry
  %2 = load ptr, ptr %simpleVector, align 8
  %vtable = load ptr, ptr %2, align 8
  %vfn = getelementptr inbounds ptr, ptr %vtable, i64 44
  %3 = load ptr, ptr %vfn, align 8
  %call2 = call { i64, ptr } %3(ptr noundef nonnull align 8 dereferenceable(208) %2, i32 noundef 0)
  %4 = getelementptr inbounds { i64, ptr }, ptr %retval, i32 0, i32 0
  %5 = extractvalue { i64, ptr } %call2, 0
  store i64 %5, ptr %4, align 8
  %6 = getelementptr inbounds { i64, ptr }, ptr %retval, i32 0, i32 1
  %7 = extractvalue { i64, ptr } %call2, 1
  store ptr %7, ptr %6, align 8
  %8 = load { i64, ptr }, ptr %retval, align 8
  ret { i64, ptr } %8
}